; Function Attrs: mustprogress uwtable
define void @Z3_global_param_set(ptr noundef %param_id, ptr noundef %param_value) local_unnamed_addr #3 personality ptr @__gxx_personality_v0 {
entry:
  tail call void @_ZN6memory10initializeEm(i64 noundef 4294967295)
  %0 = atomicrmw xchg ptr @g_z3_log_enabled, i8 0 seq_cst, align 1
  %1 = and i8 %0, 1
  %tobool.i.not = icmp eq i8 %1, 0
  br i1 %tobool.i.not, label %if.end, label %if.then

if.then:                                          ; preds = %entry
  invoke void @_Z23log_Z3_global_param_setPKcS0_(ptr noundef %param_id, ptr noundef %param_value)
          to label %if.end unwind label %lpad

lpad:                                             ; preds = %invoke.cont8, %if.then
  %2 = landingpad { ptr, i32 }
          cleanup
  br label %ehcleanup

if.end:                                           ; preds = %if.then, %entry
  invoke void @_ZN7gparams3setEPKcS1_(ptr noundef %param_id, ptr noundef %param_value)
          to label %invoke.cont3 unwind label %lpad2

invoke.cont3:                                     ; preds = %if.end
  invoke void @_ZN10env_params11updt_paramsEv()
          to label %try.cont unwind label %lpad2

lpad2:                                            ; preds = %invoke.cont3, %if.end
  %3 = landingpad { ptr, i32 }
          cleanup
          catch ptr @_ZTI12z3_exception
  %4 = extractvalue { ptr, i32 } %3, 1
  %5 = tail call i32 @llvm.eh.typeid.for(ptr nonnull @_ZTI12z3_exception) #10
  %matches = icmp eq i32 %4, %5
  br i1 %matches, label %catch, label %ehcleanup

catch:                                            ; preds = %lpad2
  %6 = extractvalue { ptr, i32 } %3, 0
  %7 = tail call ptr @__cxa_begin_catch(ptr %6) #10
  %vtable = load ptr, ptr %7, align 8
  %vfn = getelementptr inbounds i8, ptr %vtable, i64 16
  %8 = load ptr, ptr %vfn, align 8
  %call7 = invoke noundef ptr %8(ptr noundef nonnull align 8 dereferenceable(8) %7)
          to label %invoke.cont6 unwind label %lpad5

invoke.cont6:                                     ; preds = %catch
  invoke void (ptr, ...) @_Z11warning_msgPKcz(ptr noundef nonnull @.str, ptr noundef %call7)
          to label %invoke.cont8 unwind label %lpad5

invoke.cont8:                                     ; preds = %invoke.cont6
  invoke void @__cxa_end_catch()
          to label %try.cont unwind label %lpad

try.cont:                                         ; preds = %invoke.cont8, %invoke.cont3
  br i1 %tobool.i.not, label %_ZN10z3_log_ctxD2Ev.exit, label %if.then.i

if.then.i:                                        ; preds = %try.cont
  store atomic i8 1, ptr @g_z3_log_enabled seq_cst, align 1
  br label %_ZN10z3_log_ctxD2Ev.exit

_ZN10z3_log_ctxD2Ev.exit:                         ; preds = %try.cont, %if.then.i
  ret void

lpad5:                                            ; preds = %invoke.cont6, %catch
  %9 = landingpad { ptr, i32 }
          cleanup
  invoke void @__cxa_end_catch()
          to label %ehcleanup unwind label %terminate.lpad

ehcleanup:                                        ; preds = %lpad5, %lpad2, %lpad
  %lpad.val13.merged = phi { ptr, i32 } [ %2, %lpad ], [ %9, %lpad5 ], [ %3, %lpad2 ]
  br i1 %tobool.i.not, label %_ZN10z3_log_ctxD2Ev.exit6, label %if.then.i5

if.then.i5:                                       ; preds = %ehcleanup
  store atomic i8 1, ptr @g_z3_log_enabled seq_cst, align 1
  br label %_ZN10z3_log_ctxD2Ev.exit6

_ZN10z3_log_ctxD2Ev.exit6:                        ; preds = %ehcleanup, %if.then.i5
  resume { ptr, i32 } %lpad.val13.merged

terminate.lpad:                                   ; preds = %lpad5
  %10 = landingpad { ptr, i32 }
          catch ptr null
  %11 = extractvalue { ptr, i32 } %10, 0
  tail call void @__clang_call_terminate(ptr %11) #11
  unreachable
}